; Function Attrs: nounwind uwtable
define ptr @l_Lake_InputDirConfig_mkCommand(ptr noundef %0, ptr noundef %1, i8 noundef zeroext %2) local_unnamed_addr #0 {
  %4 = load ptr, ptr @l_Lake_quoteArray_x3f___rarg___closed__1, align 8, !tbaa !12
  %5 = ptrtoint ptr %0 to i64
  %6 = and i64 %5, 1
  %.not = icmp eq i64 %6, 0
  br i1 %.not, label %7, label %lean_inc.exit28

7:                                                ; preds = %3
  %.val.i = load i32, ptr %0, align 4, !tbaa !8
  %8 = icmp sgt i32 %.val.i, 0
  br i1 %8, label %9, label %11, !prof !11

9:                                                ; preds = %7
  %10 = add nuw i32 %.val.i, 1
  store i32 %10, ptr %0, align 4, !tbaa !8
  br label %lean_inc.exit28

11:                                               ; preds = %7
  %.not.i33 = icmp eq i32 %.val.i, 0
  br i1 %.not.i33, label %lean_inc.exit28, label %12

12:                                               ; preds = %11
  tail call void @lean_inc_ref_cold(ptr noundef nonnull %0) #6
  br label %lean_inc.exit28

lean_inc.exit28:                                  ; preds = %12, %11, %9, %3
  %13 = tail call ptr @l_Lake_InputDirConfig_mkDeclFields(ptr noundef %0, ptr noundef %1, ptr noundef %4)
  %14 = tail call ptr @l_Lake_mkDeclValWhere_x3f(ptr noundef %13)
  %15 = ptrtoint ptr %13 to i64
  %16 = and i64 %15, 1
  %.not40 = icmp eq i64 %16, 0
  br i1 %.not40, label %17, label %lean_dec.exit26

17:                                               ; preds = %lean_inc.exit28
  %18 = load i32, ptr %13, align 4, !tbaa !8
  %19 = icmp sgt i32 %18, 1
  br i1 %19, label %20, label %22, !prof !11

20:                                               ; preds = %17
  %21 = add nsw i32 %18, -1
  store i32 %21, ptr %13, align 4, !tbaa !8
  br label %lean_dec.exit26

22:                                               ; preds = %17
  %.not.i = icmp eq i32 %18, 0
  br i1 %.not.i, label %lean_dec.exit26, label %23

23:                                               ; preds = %22
  tail call void @lean_dec_ref_cold(ptr noundef nonnull %13) #6
  br label %lean_dec.exit26

lean_dec.exit26:                                  ; preds = %23, %22, %20, %lean_inc.exit28
  %24 = icmp eq i8 %2, 0
  br i1 %24, label %25, label %48

25:                                               ; preds = %lean_dec.exit26
  %26 = load ptr, ptr @l_Lake_PartialBuildKey_toLean_go___closed__6, align 8, !tbaa !12
  %27 = load ptr, ptr @l_Lake_PartialBuildKey_toLean_go___closed__7, align 8, !tbaa !12
  %28 = tail call ptr @l_Lake_InputDirConfig_mkCommand___lambda__1(ptr noundef %0, ptr noundef %14, ptr noundef nonnull inttoptr (i64 1 to ptr), ptr noundef %26, ptr noundef %27)
  %29 = getelementptr inbounds nuw i8, ptr %28, i64 8
  %30 = load ptr, ptr %29, align 8, !tbaa !12
  %31 = ptrtoint ptr %30 to i64
  %32 = and i64 %31, 1
  %.not43 = icmp eq i64 %32, 0
  br i1 %.not43, label %33, label %lean_inc.exit27

33:                                               ; preds = %25
  %.val.i34 = load i32, ptr %30, align 4, !tbaa !8
  %34 = icmp sgt i32 %.val.i34, 0
  br i1 %34, label %35, label %37, !prof !11

35:                                               ; preds = %33
  %36 = add nuw i32 %.val.i34, 1
  store i32 %36, ptr %30, align 4, !tbaa !8
  br label %lean_inc.exit27

37:                                               ; preds = %33
  %.not.i35 = icmp eq i32 %.val.i34, 0
  br i1 %.not.i35, label %lean_inc.exit27, label %38

38:                                               ; preds = %37
  tail call void @lean_inc_ref_cold(ptr noundef nonnull %30) #6
  br label %lean_inc.exit27

lean_inc.exit27:                                  ; preds = %38, %37, %35, %25
  %39 = ptrtoint ptr %28 to i64
  %40 = and i64 %39, 1
  %.not44 = icmp eq i64 %40, 0
  br i1 %.not44, label %41, label %lean_dec.exit25

41:                                               ; preds = %lean_inc.exit27
  %42 = load i32, ptr %28, align 4, !tbaa !8
  %43 = icmp sgt i32 %42, 1
  br i1 %43, label %44, label %46, !prof !11

44:                                               ; preds = %41
  %45 = add nsw i32 %42, -1
  store i32 %45, ptr %28, align 4, !tbaa !8
  br label %lean_dec.exit25

46:                                               ; preds = %41
  %.not.i29 = icmp eq i32 %42, 0
  br i1 %.not.i29, label %lean_dec.exit25, label %47

47:                                               ; preds = %46
  tail call void @lean_dec_ref_cold(ptr noundef nonnull %28) #6
  br label %lean_dec.exit25

48:                                               ; preds = %lean_dec.exit26
  %49 = load ptr, ptr @l_Lake_LeanLibConfig_mkCommand___closed__20, align 8, !tbaa !12
  %50 = load ptr, ptr @l_Lake_PartialBuildKey_toLean_go___closed__6, align 8, !tbaa !12
  %51 = load ptr, ptr @l_Lake_PartialBuildKey_toLean_go___closed__7, align 8, !tbaa !12
  %52 = tail call ptr @l_Lake_InputDirConfig_mkCommand___lambda__1(ptr noundef %0, ptr noundef %14, ptr noundef %49, ptr noundef %50, ptr noundef %51)
  %53 = getelementptr inbounds nuw i8, ptr %52, i64 8
  %54 = load ptr, ptr %53, align 8, !tbaa !12
  %55 = ptrtoint ptr %54 to i64
  %56 = and i64 %55, 1
  %.not41 = icmp eq i64 %56, 0
  br i1 %.not41, label %57, label %lean_inc.exit

57:                                               ; preds = %48
  %.val.i37 = load i32, ptr %54, align 4, !tbaa !8
  %58 = icmp sgt i32 %.val.i37, 0
  br i1 %58, label %59, label %61, !prof !11

59:                                               ; preds = %57
  %60 = add nuw i32 %.val.i37, 1
  store i32 %60, ptr %54, align 4, !tbaa !8
  br label %lean_inc.exit

61:                                               ; preds = %57
  %.not.i38 = icmp eq i32 %.val.i37, 0
  br i1 %.not.i38, label %lean_inc.exit, label %62

62:                                               ; preds = %61
  tail call void @lean_inc_ref_cold(ptr noundef nonnull %54) #6
  br label %lean_inc.exit

lean_inc.exit:                                    ; preds = %62, %61, %59, %48
  %63 = ptrtoint ptr %52 to i64
  %64 = and i64 %63, 1
  %.not42 = icmp eq i64 %64, 0
  br i1 %.not42, label %65, label %lean_dec.exit25

65:                                               ; preds = %lean_inc.exit
  %66 = load i32, ptr %52, align 4, !tbaa !8
  %67 = icmp sgt i32 %66, 1
  br i1 %67, label %68, label %70, !prof !11

68:                                               ; preds = %65
  %69 = add nsw i32 %66, -1
  store i32 %69, ptr %52, align 4, !tbaa !8
  br label %lean_dec.exit25

70:                                               ; preds = %65
  %.not.i31 = icmp eq i32 %66, 0
  br i1 %.not.i31, label %lean_dec.exit25, label %71

71:                                               ; preds = %70
  tail call void @lean_dec_ref_cold(ptr noundef nonnull %52) #6
  br label %lean_dec.exit25

lean_dec.exit25:                                  ; preds = %lean_inc.exit, %68, %70, %71, %lean_inc.exit27, %44, %46, %47
  %.0 = phi ptr [ %30, %47 ], [ %30, %46 ], [ %30, %44 ], [ %30, %lean_inc.exit27 ], [ %54, %71 ], [ %54, %70 ], [ %54, %68 ], [ %54, %lean_inc.exit ]
  ret ptr %.0
}